; Function Attrs: mustprogress uwtable
define noundef i32 @_Z15gmx_fft_2d_realP7gmx_fft17gmx_fft_directionPvS2_(ptr noundef readonly captures(none) %0, i32 noundef %1, ptr noundef %2, ptr noundef %3) local_unnamed_addr #0 personality ptr @__gxx_personality_v0 {
  %5 = alloca %"class.std::filesystem::__cxx11::path", align 8
  %6 = ptrtoint ptr %2 to i64
  %7 = ptrtoint ptr %3 to i64
  %8 = or i64 %7, %6
  %9 = and i64 %8, 15
  %10 = icmp eq i64 %9, 0
  %11 = icmp eq ptr %2, %3
  %12 = icmp eq i32 %1, 2
  %13 = getelementptr inbounds nuw i8, ptr %0, i64 64
  %14 = load i32, ptr %13, align 8, !tbaa !17
  %.not = icmp eq i32 %14, 1
  br i1 %.not, label %15, label %19

15:                                               ; preds = %4
  %16 = getelementptr inbounds nuw i8, ptr %0, i64 68
  %17 = load i32, ptr %16, align 4, !tbaa !19
  %.not24 = icmp ne i32 %17, 2
  %18 = add i32 %1, -4
  %or.cond = icmp ult i32 %18, -2
  %or.cond25 = or i1 %or.cond, %.not24
  br i1 %or.cond25, label %19, label %23

19:                                               ; preds = %15, %4
  call void @llvm.lifetime.start.p0(i64 40, ptr nonnull %5) #13
  call void @_ZNSt10filesystem7__cxx114pathC2IA123_cS1_EERKT_NS1_6formatE(ptr noundef nonnull align 8 dereferenceable(40) %5, ptr noundef nonnull align 1 dereferenceable(123) @.str, i8 noundef zeroext 2)
  invoke void (i32, ptr, i32, ptr, ...) @_Z9gmx_fataliRKNSt10filesystem7__cxx114pathEiPKcz(i32 noundef 0, ptr noundef nonnull align 8 dereferenceable(40) %5, i32 noundef 613, ptr noundef nonnull @.str.5) #14
          to label %20 unwind label %21

20:                                               ; preds = %19
  unreachable

21:                                               ; preds = %19
  %22 = landingpad { ptr, i32 }
          cleanup
  call void @_ZNSt10filesystem7__cxx114pathD2Ev(ptr noundef nonnull align 8 dereferenceable(40) %5) #13
  call void @llvm.lifetime.end.p0(i64 40, ptr nonnull %5) #13
  resume { ptr, i32 } %22

23:                                               ; preds = %15
  %24 = zext i1 %10 to i64
  %25 = zext i1 %11 to i64
  br i1 %12, label %26, label %29

26:                                               ; preds = %23
  %27 = getelementptr inbounds nuw [2 x [2 x [2 x ptr]]], ptr %0, i64 0, i64 %24, i64 %25, i64 1
  %28 = load ptr, ptr %27, align 8, !tbaa !11
  tail call void @fftwf_execute_dft_r2c(ptr noundef %28, ptr noundef %2, ptr noundef %3)
  br label %32

29:                                               ; preds = %23
  %30 = getelementptr inbounds nuw [2 x [2 x [2 x ptr]]], ptr %0, i64 0, i64 %24, i64 %25
  %31 = load ptr, ptr %30, align 8, !tbaa !11
  tail call void @fftwf_execute_dft_c2r(ptr noundef %31, ptr noundef %2, ptr noundef %3)
  br label %32

32:                                               ; preds = %29, %26
  ret i32 0
}